target datalayout = "e-m:e-p270:32:32-p271:32:32-p272:64:64-i64:64-i128:128-f80:128-n8:16:32:64-S128"
target triple = "x86_64-pc-linux-gnu"

%struct.AVCodecContext = type { ptr, i32, i32, ptr, i32, i32, ptr, ptr, ptr, i64, i32, i32, ptr, i32, %struct.AVRational, %struct.AVRational, %struct.AVRational, i32, i32, i32, i32, i32, %struct.AVRational, i32, i32, i32, i32, i32, i32, i32, i32, i32, i32, i32, ptr, ptr, i32, float, float, float, float, float, float, float, float, float, i32, i32, i32, i32, i32, i32, i32, i32, i32, i32, i32, i32, ptr, ptr, ptr, i32, i32, i32, i32, i32, i32, i32, i32, i32, i32, %struct.AVChannelLayout, i32, i32, i32, i32, i32, i32, i32, i32, ptr, i32, i32, i32, float, float, i32, i32, i32, i32, i32, ptr, i64, i64, float, float, i32, i32, ptr, ptr, i32, i32, i32, i32, i32, ptr, ptr, ptr, ptr, i32, i32, [8 x i64], i32, i32, i32, i32, i32, i32, i32, ptr, ptr, i32, i32, i32, i32, i32, i32, i32, i32, i32, i32, ptr, ptr, i32, i32, ptr, ptr, ptr, ptr, i32, i32, i64, i32, i32, i64, ptr, i64, ptr, i32, ptr, i32 }
%struct.AVRational = type { i32, i32 }
%struct.AVChannelLayout = type { i32, i32, %union.anon.1, ptr }
%union.anon.1 = type { i64 }
%struct.AV1DecContext = type { ptr, ptr, i32, ptr, %struct.CodedBitstreamFragment, ptr, ptr, ptr, ptr, ptr, ptr, ptr, ptr, ptr, ptr, ptr, %struct.DOVIContext, ptr, i16, i16, i16, i32, [8 x %struct.AV1Frame], %struct.AV1Frame, i32, i32, i32 }
%struct.CodedBitstreamFragment = type { ptr, i64, i64, ptr, i32, i32, ptr }
%struct.DOVIContext = type { ptr, i32, %struct.AVDOVIDecoderConfigurationRecord, %struct.AVDOVIRpuDataHeader, ptr, ptr, ptr, ptr, [16 x ptr], ptr, i32 }
%struct.AVDOVIDecoderConfigurationRecord = type { i8, i8, i8, i8, i8, i8, i8, i8, i8 }
%struct.AVDOVIRpuDataHeader = type { i8, i16, i8, i8, i8, i8, i8, i8, i8, i8, i8, i8, i8, i8, i8, i8, i8 }
%struct.AV1Frame = type { %union.anon.2, ptr, ptr, ptr, i32, i32, [8 x i8], [8 x i8], [8 x [6 x i32]], [2 x i8], %struct.AV1RawFilmGrainParams, i8, i8, [8 x i8], [8 x i8], i8 }
%union.anon.2 = type { %struct.ProgressFrame }
%struct.ProgressFrame = type { ptr, ptr }
%struct.AV1RawFilmGrainParams = type { i8, i16, i8, i8, i8, [14 x i8], [14 x i8], i8, i8, [10 x i8], [10 x i8], i8, [10 x i8], [10 x i8], i8, i8, [24 x i8], [25 x i8], [25 x i8], i8, i8, i8, i8, i16, i8, i8, i16, i8, i8 }
%struct.AV1RawFrameHeader = type { i8, i8, i32, i32, i8, i8, i8, i8, i8, i8, i8, i32, i8, i8, i8, [32 x i32], i8, i16, i16, i8, i8, i8, i16, i16, [7 x i8], i8, i8, [8 x i8], i8, i8, i8, [7 x i8], [7 x i32], i8, i8, i8, i8, i8, i8, i8, i8, i8, [64 x i8], [64 x i8], [64 x i8], [64 x i8], i16, i8, i16, i16, i8, i8, i8, i8, i8, i8, i8, i8, i8, i8, i8, i8, i8, i8, i8, [8 x [8 x i8]], [8 x [8 x i16]], i8, i8, i8, i8, i8, [4 x i8], i8, i8, i8, [8 x i8], [8 x i8], [2 x i8], [2 x i8], i8, i8, [8 x i8], [8 x i8], [8 x i8], [8 x i8], [3 x i8], i8, i8, i8, i8, i8, i8, i8, [8 x i8], [8 x i8], [8 x i8], [8 x [6 x i32]], %struct.AV1RawFilmGrainParams }

; Function Attrs: nounwind uwtable
define internal void @av1_frame_replace(ptr noundef %0, ptr noundef %1) #1 {
  %3 = alloca ptr, align 8
  %4 = alloca ptr, align 8
  store ptr %0, ptr %3, align 8, !tbaa !184
  store ptr %1, ptr %4, align 8, !tbaa !184
  %5 = load ptr, ptr %3, align 8, !tbaa !184
  %6 = getelementptr inbounds nuw %struct.AV1Frame, ptr %5, i32 0, i32 2
  %7 = load ptr, ptr %4, align 8, !tbaa !184
  %8 = getelementptr inbounds nuw %struct.AV1Frame, ptr %7, i32 0, i32 2
  %9 = load ptr, ptr %8, align 8, !tbaa !186
  call void @av_refstruct_replace(ptr noundef %6, ptr noundef %9)
  %10 = load ptr, ptr %4, align 8, !tbaa !184
  %11 = getelementptr inbounds nuw %struct.AV1Frame, ptr %10, i32 0, i32 3
  %12 = load ptr, ptr %11, align 8, !tbaa !187
  %13 = load ptr, ptr %3, align 8, !tbaa !184
  %14 = getelementptr inbounds nuw %struct.AV1Frame, ptr %13, i32 0, i32 3
  store ptr %12, ptr %14, align 8, !tbaa !187
  %15 = load ptr, ptr %3, align 8, !tbaa !184
  %16 = getelementptr inbounds nuw %struct.AV1Frame, ptr %15, i32 0, i32 0
  %17 = load ptr, ptr %4, align 8, !tbaa !184
  %18 = getelementptr inbounds nuw %struct.AV1Frame, ptr %17, i32 0, i32 0
  call void @ff_progress_frame_replace(ptr noundef %16, ptr noundef %18)
  %19 = load ptr, ptr %3, align 8, !tbaa !184
  %20 = getelementptr inbounds nuw %struct.AV1Frame, ptr %19, i32 0, i32 1
  %21 = load ptr, ptr %4, align 8, !tbaa !184
  %22 = getelementptr inbounds nuw %struct.AV1Frame, ptr %21, i32 0, i32 1
  %23 = load ptr, ptr %22, align 8, !tbaa !188
  call void @av_refstruct_replace(ptr noundef %20, ptr noundef %23)
  %24 = load ptr, ptr %4, align 8, !tbaa !184
  %25 = getelementptr inbounds nuw %struct.AV1Frame, ptr %24, i32 0, i32 5
  %26 = load i32, ptr %25, align 4, !tbaa !189
  %27 = load ptr, ptr %3, align 8, !tbaa !184
  %28 = getelementptr inbounds nuw %struct.AV1Frame, ptr %27, i32 0, i32 5
  store i32 %26, ptr %28, align 4, !tbaa !189
  %29 = load ptr, ptr %4, align 8, !tbaa !184
  %30 = getelementptr inbounds nuw %struct.AV1Frame, ptr %29, i32 0, i32 4
  %31 = load i32, ptr %30, align 8, !tbaa !190
  %32 = load ptr, ptr %3, align 8, !tbaa !184
  %33 = getelementptr inbounds nuw %struct.AV1Frame, ptr %32, i32 0, i32 4
  store i32 %31, ptr %33, align 8, !tbaa !190
  %34 = load ptr, ptr %3, align 8, !tbaa !184
  %35 = getelementptr inbounds nuw %struct.AV1Frame, ptr %34, i32 0, i32 6
  %36 = getelementptr inbounds [8 x i8], ptr %35, i64 0, i64 0
  %37 = load ptr, ptr %4, align 8, !tbaa !184
  %38 = getelementptr inbounds nuw %struct.AV1Frame, ptr %37, i32 0, i32 6
  %39 = getelementptr inbounds [8 x i8], ptr %38, i64 0, i64 0
  call void @llvm.memcpy.p0.p0.i64(ptr align 8 %36, ptr align 8 %39, i64 8, i1 false)
  %40 = load ptr, ptr %3, align 8, !tbaa !184
  %41 = getelementptr inbounds nuw %struct.AV1Frame, ptr %40, i32 0, i32 7
  %42 = getelementptr inbounds [8 x i8], ptr %41, i64 0, i64 0
  %43 = load ptr, ptr %4, align 8, !tbaa !184
  %44 = getelementptr inbounds nuw %struct.AV1Frame, ptr %43, i32 0, i32 7
  %45 = getelementptr inbounds [8 x i8], ptr %44, i64 0, i64 0
  call void @llvm.memcpy.p0.p0.i64(ptr align 8 %42, ptr align 8 %45, i64 8, i1 false)
  %46 = load ptr, ptr %3, align 8, !tbaa !184
  %47 = getelementptr inbounds nuw %struct.AV1Frame, ptr %46, i32 0, i32 8
  %48 = getelementptr inbounds [8 x [6 x i32]], ptr %47, i64 0, i64 0
  %49 = load ptr, ptr %4, align 8, !tbaa !184
  %50 = getelementptr inbounds nuw %struct.AV1Frame, ptr %49, i32 0, i32 8
  %51 = getelementptr inbounds [8 x [6 x i32]], ptr %50, i64 0, i64 0
  call void @llvm.memcpy.p0.p0.i64(ptr align 8 %48, ptr align 8 %51, i64 192, i1 false)
  %52 = load ptr, ptr %3, align 8, !tbaa !184
  %53 = getelementptr inbounds nuw %struct.AV1Frame, ptr %52, i32 0, i32 9
  %54 = getelementptr inbounds [2 x i8], ptr %53, i64 0, i64 0
  %55 = load ptr, ptr %4, align 8, !tbaa !184
  %56 = getelementptr inbounds nuw %struct.AV1Frame, ptr %55, i32 0, i32 9
  %57 = getelementptr inbounds [2 x i8], ptr %56, i64 0, i64 0
  call void @llvm.memcpy.p0.p0.i64(ptr align 8 %54, ptr align 8 %57, i64 2, i1 false)
  %58 = load ptr, ptr %3, align 8, !tbaa !184
  %59 = getelementptr inbounds nuw %struct.AV1Frame, ptr %58, i32 0, i32 10
  %60 = load ptr, ptr %4, align 8, !tbaa !184
  %61 = getelementptr inbounds nuw %struct.AV1Frame, ptr %60, i32 0, i32 10
  call void @llvm.memcpy.p0.p0.i64(ptr align 2 %59, ptr align 2 %61, i64 166, i1 false)
  %62 = load ptr, ptr %4, align 8, !tbaa !184
  %63 = getelementptr inbounds nuw %struct.AV1Frame, ptr %62, i32 0, i32 11
  %64 = load i8, ptr %63, align 8, !tbaa !191
  %65 = load ptr, ptr %3, align 8, !tbaa !184
  %66 = getelementptr inbounds nuw %struct.AV1Frame, ptr %65, i32 0, i32 11
  store i8 %64, ptr %66, align 8, !tbaa !191
  %67 = load ptr, ptr %4, align 8, !tbaa !184
  %68 = getelementptr inbounds nuw %struct.AV1Frame, ptr %67, i32 0, i32 12
  %69 = load i8, ptr %68, align 1, !tbaa !192
  %70 = load ptr, ptr %3, align 8, !tbaa !184
  %71 = getelementptr inbounds nuw %struct.AV1Frame, ptr %70, i32 0, i32 12
  store i8 %69, ptr %71, align 1, !tbaa !192
  %72 = load ptr, ptr %3, align 8, !tbaa !184
  %73 = getelementptr inbounds nuw %struct.AV1Frame, ptr %72, i32 0, i32 13
  %74 = getelementptr inbounds [8 x i8], ptr %73, i64 0, i64 0
  %75 = load ptr, ptr %4, align 8, !tbaa !184
  %76 = getelementptr inbounds nuw %struct.AV1Frame, ptr %75, i32 0, i32 13
  %77 = getelementptr inbounds [8 x i8], ptr %76, i64 0, i64 0
  call void @llvm.memcpy.p0.p0.i64(ptr align 2 %74, ptr align 2 %77, i64 8, i1 false)
  %78 = load ptr, ptr %3, align 8, !tbaa !184
  %79 = getelementptr inbounds nuw %struct.AV1Frame, ptr %78, i32 0, i32 14
  %80 = getelementptr inbounds [8 x i8], ptr %79, i64 0, i64 0
  %81 = load ptr, ptr %4, align 8, !tbaa !184
  %82 = getelementptr inbounds nuw %struct.AV1Frame, ptr %81, i32 0, i32 14
  %83 = getelementptr inbounds [8 x i8], ptr %82, i64 0, i64 0
  call void @llvm.memcpy.p0.p0.i64(ptr align 2 %80, ptr align 2 %83, i64 8, i1 false)
  %84 = load ptr, ptr %4, align 8, !tbaa !184
  %85 = getelementptr inbounds nuw %struct.AV1Frame, ptr %84, i32 0, i32 15
  %86 = load i8, ptr %85, align 2, !tbaa !193
  %87 = load ptr, ptr %3, align 8, !tbaa !184
  %88 = getelementptr inbounds nuw %struct.AV1Frame, ptr %87, i32 0, i32 15
  store i8 %86, ptr %88, align 2, !tbaa !193
  ret void
}

; Function Attrs: nounwind uwtable
define internal void @update_reference_list(ptr noundef %0) #1 {
  %2 = alloca ptr, align 8
  %3 = alloca ptr, align 8
  %4 = alloca ptr, align 8
  %5 = alloca i32, align 4
  store ptr %0, ptr %2, align 8, !tbaa !4
  call void @llvm.lifetime.start.p0(i64 8, ptr %3) #11
  %6 = load ptr, ptr %2, align 8, !tbaa !4
  %7 = getelementptr inbounds nuw %struct.AVCodecContext, ptr %6, i32 0, i32 6
  %8 = load ptr, ptr %7, align 8, !tbaa !9
  store ptr %8, ptr %3, align 8, !tbaa !29
  call void @llvm.lifetime.start.p0(i64 8, ptr %4) #11
  %9 = load ptr, ptr %3, align 8, !tbaa !29
  %10 = getelementptr inbounds nuw %struct.AV1DecContext, ptr %9, i32 0, i32 10
  %11 = load ptr, ptr %10, align 8, !tbaa !94
  store ptr %11, ptr %4, align 8, !tbaa !194
  call void @llvm.lifetime.start.p0(i64 4, ptr %5) #11
  store i32 0, ptr %5, align 4, !tbaa !62
  br label %12

12:                                               ; preds = %34, %1
  %13 = load i32, ptr %5, align 4, !tbaa !62
  %14 = icmp slt i32 %13, 8
  br i1 %14, label %16, label %15

15:                                               ; preds = %12
  call void @llvm.lifetime.end.p0(i64 4, ptr %5) #11
  br label %37

16:                                               ; preds = %12
  %17 = load ptr, ptr %4, align 8, !tbaa !194
  %18 = getelementptr inbounds nuw %struct.AV1RawFrameHeader, ptr %17, i32 0, i32 25
  %19 = load i8, ptr %18, align 1, !tbaa !195
  %20 = zext i8 %19 to i32
  %21 = load i32, ptr %5, align 4, !tbaa !62
  %22 = shl i32 1, %21
  %23 = and i32 %20, %22
  %24 = icmp ne i32 %23, 0
  br i1 %24, label %25, label %33

25:                                               ; preds = %16
  %26 = load ptr, ptr %3, align 8, !tbaa !29
  %27 = getelementptr inbounds nuw %struct.AV1DecContext, ptr %26, i32 0, i32 22
  %28 = load i32, ptr %5, align 4, !tbaa !62
  %29 = sext i32 %28 to i64
  %30 = getelementptr inbounds [8 x %struct.AV1Frame], ptr %27, i64 0, i64 %29
  %31 = load ptr, ptr %3, align 8, !tbaa !29
  %32 = getelementptr inbounds nuw %struct.AV1DecContext, ptr %31, i32 0, i32 23
  call void @av1_frame_replace(ptr noundef %30, ptr noundef %32)
  br label %33

33:                                               ; preds = %25, %16
  br label %34

34:                                               ; preds = %33
  %35 = load i32, ptr %5, align 4, !tbaa !62
  %36 = add nsw i32 %35, 1
  store i32 %36, ptr %5, align 4, !tbaa !62
  br label %12, !llvm.loop !196

37:                                               ; preds = %15
  call void @llvm.lifetime.end.p0(i64 8, ptr %4) #11
  call void @llvm.lifetime.end.p0(i64 8, ptr %3) #11
  ret void
}