; Function Attrs: nounwind uwtable
define internal fastcc void @update_reference_list(ptr %.32.val) unnamed_addr #1 {
  %1 = getelementptr inbounds nuw i8, ptr %.32.val, i64 120
  %2 = load ptr, ptr %1, align 8, !tbaa !101
  %3 = getelementptr inbounds nuw i8, ptr %2, i64 177
  %4 = getelementptr inbounds nuw i8, ptr %.32.val, i64 416
  %5 = getelementptr inbounds nuw i8, ptr %.32.val, i64 4000
  %6 = getelementptr inbounds nuw i8, ptr %.32.val, i64 4024
  %7 = getelementptr inbounds nuw i8, ptr %.32.val, i64 4032
  %8 = getelementptr inbounds nuw i8, ptr %.32.val, i64 4016
  %9 = getelementptr inbounds nuw i8, ptr %.32.val, i64 4044
  %10 = getelementptr inbounds nuw i8, ptr %.32.val, i64 4040
  %11 = getelementptr inbounds nuw i8, ptr %.32.val, i64 4048
  %12 = getelementptr inbounds nuw i8, ptr %.32.val, i64 4056
  %13 = getelementptr inbounds nuw i8, ptr %.32.val, i64 4064
  %14 = getelementptr inbounds nuw i8, ptr %.32.val, i64 4256
  %15 = getelementptr inbounds nuw i8, ptr %.32.val, i64 4258
  %16 = getelementptr inbounds nuw i8, ptr %.32.val, i64 4424
  %17 = getelementptr inbounds nuw i8, ptr %.32.val, i64 4425
  %18 = getelementptr inbounds nuw i8, ptr %.32.val, i64 4426
  %19 = getelementptr inbounds nuw i8, ptr %.32.val, i64 4434
  %20 = getelementptr inbounds nuw i8, ptr %.32.val, i64 4442
  br label %22

21:                                               ; preds = %58
  ret void

22:                                               ; preds = %0, %58
  %indvars.iv = phi i64 [ 0, %0 ], [ %indvars.iv.next, %58 ]
  %23 = load i8, ptr %3, align 1, !tbaa !232
  %24 = zext i8 %23 to i32
  %25 = trunc nuw nsw i64 %indvars.iv to i32
  %26 = shl nuw nsw i32 1, %25
  %27 = and i32 %26, %24
  %.not = icmp eq i32 %27, 0
  br i1 %.not, label %58, label %28

28:                                               ; preds = %22
  %29 = getelementptr inbounds nuw [8 x %struct.AV1Frame], ptr %4, i64 0, i64 %indvars.iv
  %30 = getelementptr inbounds nuw i8, ptr %29, i64 24
  %31 = load ptr, ptr %6, align 8, !tbaa !105
  tail call void @av_refstruct_replace(ptr noundef nonnull %30, ptr noundef %31) #9
  %32 = load ptr, ptr %7, align 8, !tbaa !106
  %33 = getelementptr inbounds nuw i8, ptr %29, i64 32
  store ptr %32, ptr %33, align 8, !tbaa !106
  tail call void @ff_progress_frame_replace(ptr noundef nonnull %29, ptr noundef nonnull %5) #9
  %34 = getelementptr inbounds nuw i8, ptr %29, i64 16
  %35 = load ptr, ptr %8, align 8, !tbaa !107
  tail call void @av_refstruct_replace(ptr noundef nonnull %34, ptr noundef %35) #9
  %36 = load i32, ptr %9, align 4, !tbaa !108
  %37 = getelementptr inbounds nuw i8, ptr %29, i64 44
  store i32 %36, ptr %37, align 4, !tbaa !108
  %38 = load i32, ptr %10, align 8, !tbaa !109
  %39 = getelementptr inbounds nuw i8, ptr %29, i64 40
  store i32 %38, ptr %39, align 8, !tbaa !109
  %40 = getelementptr inbounds nuw i8, ptr %29, i64 48
  %41 = load i64, ptr %11, align 8
  store i64 %41, ptr %40, align 8
  %42 = getelementptr inbounds nuw i8, ptr %29, i64 56
  %43 = load i64, ptr %12, align 8
  store i64 %43, ptr %42, align 8
  %44 = getelementptr inbounds nuw i8, ptr %29, i64 64
  tail call void @llvm.memcpy.p0.p0.i64(ptr noundef nonnull align 8 dereferenceable(192) %44, ptr noundef nonnull align 8 dereferenceable(192) %13, i64 192, i1 false)
  %45 = getelementptr inbounds nuw i8, ptr %29, i64 256
  %46 = load i16, ptr %14, align 8
  store i16 %46, ptr %45, align 8
  %47 = getelementptr inbounds nuw i8, ptr %29, i64 258
  tail call void @llvm.memcpy.p0.p0.i64(ptr noundef nonnull align 2 dereferenceable(166) %47, ptr noundef nonnull align 2 dereferenceable(166) %15, i64 166, i1 false)
  %48 = load i8, ptr %16, align 8, !tbaa !110
  %49 = getelementptr inbounds nuw i8, ptr %29, i64 424
  store i8 %48, ptr %49, align 8, !tbaa !110
  %50 = load i8, ptr %17, align 1, !tbaa !111
  %51 = getelementptr inbounds nuw i8, ptr %29, i64 425
  store i8 %50, ptr %51, align 1, !tbaa !111
  %52 = getelementptr inbounds nuw i8, ptr %29, i64 426
  %53 = load i64, ptr %18, align 2
  store i64 %53, ptr %52, align 2
  %54 = getelementptr inbounds nuw i8, ptr %29, i64 434
  %55 = load i64, ptr %19, align 2
  store i64 %55, ptr %54, align 2
  %56 = load i8, ptr %20, align 2, !tbaa !112
  %57 = getelementptr inbounds nuw i8, ptr %29, i64 442
  store i8 %56, ptr %57, align 2, !tbaa !112
  br label %58

58:                                               ; preds = %22, %28
  %indvars.iv.next = add nuw nsw i64 %indvars.iv, 1
  %exitcond.not = icmp eq i64 %indvars.iv.next, 8
  br i1 %exitcond.not, label %21, label %22, !llvm.loop !233
}